target datalayout = "e-m:e-p270:32:32-p271:32:32-p272:64:64-i64:64-i128:128-f80:128-n8:16:32:64-S128"
target triple = "x86_64-pc-linux-gnu"

%struct._wmem_tree_t = type { ptr, ptr, ptr, i32, i32, ptr }
%struct._wmem_tree_node_t = type { ptr, ptr, ptr, ptr, ptr, i32, i8, i8 }

@.str = private unnamed_addr constant [22 x i8] c"WMEM tree:%p root:%p\0A\00", align 1
@.str.1 = private unnamed_addr constant [6 x i8] c"Root-\00", align 1
@.str.2 = private unnamed_addr constant [5 x i8] c"    \00", align 1
@.str.3 = private unnamed_addr constant [61 x i8] c"%sNODE:%p parent:%p left:%p right:%p colour:%s key:%p %s:%p\0A\00", align 1
@.str.4 = private unnamed_addr constant [6 x i8] c"Black\00", align 1
@.str.5 = private unnamed_addr constant [4 x i8] c"Red\00", align 1
@.str.6 = private unnamed_addr constant [5 x i8] c"tree\00", align 1
@.str.7 = private unnamed_addr constant [5 x i8] c"data\00", align 1
@.str.8 = private unnamed_addr constant [2 x i8] c"\0A\00", align 1
@.str.9 = private unnamed_addr constant [3 x i8] c"L-\00", align 1
@.str.10 = private unnamed_addr constant [3 x i8] c"R-\00", align 1

; Function Attrs: null_pointer_is_valid sspstrong uwtable
define internal void @wmem_print_subtree(ptr noundef %0, i32 noundef %1, ptr noundef %2, ptr noundef %3) #0 {
  %5 = alloca ptr, align 8
  %6 = alloca i32, align 4
  %7 = alloca ptr, align 8
  %8 = alloca ptr, align 8
  store ptr %0, ptr %5, align 8
  store i32 %1, ptr %6, align 4
  store ptr %2, ptr %7, align 8
  store ptr %3, ptr %8, align 8
  %9 = load ptr, ptr %5, align 8
  %10 = icmp ne ptr %9, null
  br i1 %10, label %12, label %11

11:                                               ; preds = %4
  br label %30

12:                                               ; preds = %4
  %13 = load i32, ptr %6, align 4
  call void @wmem_print_indent(i32 noundef %13)
  %14 = load ptr, ptr %5, align 8
  %15 = load ptr, ptr %5, align 8
  %16 = getelementptr inbounds nuw %struct._wmem_tree_t, ptr %15, i32 0, i32 2
  %17 = load ptr, ptr %16, align 8
  %18 = call i32 (i32, ptr, ...) @__printf_chk(i32 noundef 2, ptr noundef @.str, ptr noundef %14, ptr noundef %17)
  %19 = load ptr, ptr %5, align 8
  %20 = getelementptr inbounds nuw %struct._wmem_tree_t, ptr %19, i32 0, i32 2
  %21 = load ptr, ptr %20, align 8
  %22 = icmp ne ptr %21, null
  br i1 %22, label %23, label %30

23:                                               ; preds = %12
  %24 = load ptr, ptr %5, align 8
  %25 = getelementptr inbounds nuw %struct._wmem_tree_t, ptr %24, i32 0, i32 2
  %26 = load ptr, ptr %25, align 8
  %27 = load i32, ptr %6, align 4
  %28 = load ptr, ptr %7, align 8
  %29 = load ptr, ptr %8, align 8
  call void @wmem_tree_print_nodes(ptr noundef @.str.1, ptr noundef %26, i32 noundef %27, ptr noundef %28, ptr noundef %29)
  br label %30

30:                                               ; preds = %11, %23, %12
  ret void
}

; Function Attrs: null_pointer_is_valid sspstrong uwtable
define internal void @wmem_print_indent(i32 noundef %0) #0 {
  %2 = alloca i32, align 4
  %3 = alloca i32, align 4
  store i32 %0, ptr %2, align 4
  call void @llvm.lifetime.start.p0(i64 4, ptr %3) #6
  store i32 0, ptr %3, align 4
  br label %4

4:                                                ; preds = %10, %1
  %5 = load i32, ptr %3, align 4
  %6 = load i32, ptr %2, align 4
  %7 = icmp ult i32 %5, %6
  br i1 %7, label %8, label %13

8:                                                ; preds = %4
  %9 = call i32 (i32, ptr, ...) @__printf_chk(i32 noundef 2, ptr noundef @.str.2)
  br label %10

10:                                               ; preds = %8
  %11 = load i32, ptr %3, align 4
  %12 = add i32 %11, 1
  store i32 %12, ptr %3, align 4
  br label %4, !llvm.loop !24

13:                                               ; preds = %4
  call void @llvm.lifetime.end.p0(i64 4, ptr %3) #6
  ret void
}

; Function Attrs: null_pointer_is_valid sspstrong uwtable
define internal void @wmem_tree_print_nodes(ptr noundef %0, ptr noundef %1, i32 noundef %2, ptr noundef %3, ptr noundef %4) #0 {
  %6 = alloca ptr, align 8
  %7 = alloca ptr, align 8
  %8 = alloca i32, align 4
  %9 = alloca ptr, align 8
  %10 = alloca ptr, align 8
  store ptr %0, ptr %6, align 8
  store ptr %1, ptr %7, align 8
  store i32 %2, ptr %8, align 4
  store ptr %3, ptr %9, align 8
  store ptr %4, ptr %10, align 8
  %11 = load ptr, ptr %7, align 8
  %12 = icmp ne ptr %11, null
  br i1 %12, label %14, label %13

13:                                               ; preds = %5
  br label %107

14:                                               ; preds = %5
  %15 = load i32, ptr %8, align 4
  call void @wmem_print_indent(i32 noundef %15)
  %16 = load ptr, ptr %6, align 8
  %17 = load ptr, ptr %7, align 8
  %18 = load ptr, ptr %7, align 8
  %19 = getelementptr inbounds nuw %struct._wmem_tree_node_t, ptr %18, i32 0, i32 0
  %20 = load ptr, ptr %19, align 8
  %21 = load ptr, ptr %7, align 8
  %22 = getelementptr inbounds nuw %struct._wmem_tree_node_t, ptr %21, i32 0, i32 1
  %23 = load ptr, ptr %22, align 8
  %24 = load ptr, ptr %7, align 8
  %25 = getelementptr inbounds nuw %struct._wmem_tree_node_t, ptr %24, i32 0, i32 2
  %26 = load ptr, ptr %25, align 8
  %27 = load ptr, ptr %7, align 8
  %28 = getelementptr inbounds nuw %struct._wmem_tree_node_t, ptr %27, i32 0, i32 5
  %29 = load i32, ptr %28, align 8
  %30 = icmp ne i32 %29, 0
  %31 = select i1 %30, ptr @.str.4, ptr @.str.5
  %32 = load ptr, ptr %7, align 8
  %33 = getelementptr inbounds nuw %struct._wmem_tree_node_t, ptr %32, i32 0, i32 3
  %34 = load ptr, ptr %33, align 8
  %35 = load ptr, ptr %7, align 8
  %36 = getelementptr inbounds nuw %struct._wmem_tree_node_t, ptr %35, i32 0, i32 6
  %37 = load i8, ptr %36, align 4, !range !6, !noundef !7
  %38 = trunc i8 %37 to i1
  %39 = select i1 %38, ptr @.str.6, ptr @.str.7
  %40 = load ptr, ptr %7, align 8
  %41 = getelementptr inbounds nuw %struct._wmem_tree_node_t, ptr %40, i32 0, i32 4
  %42 = load ptr, ptr %41, align 8
  %43 = call i32 (i32, ptr, ...) @__printf_chk(i32 noundef 2, ptr noundef @.str.3, ptr noundef %16, ptr noundef %17, ptr noundef %20, ptr noundef %23, ptr noundef %26, ptr noundef %31, ptr noundef %34, ptr noundef %39, ptr noundef %42)
  %44 = load ptr, ptr %9, align 8
  %45 = icmp ne ptr %44, null
  br i1 %45, label %46, label %53

46:                                               ; preds = %14
  %47 = load i32, ptr %8, align 4
  call void @wmem_print_indent(i32 noundef %47)
  %48 = load ptr, ptr %9, align 8
  %49 = load ptr, ptr %7, align 8
  %50 = getelementptr inbounds nuw %struct._wmem_tree_node_t, ptr %49, i32 0, i32 3
  %51 = load ptr, ptr %50, align 8
  call void %48(ptr noundef %51)
  %52 = call i32 (i32, ptr, ...) @__printf_chk(i32 noundef 2, ptr noundef @.str.8)
  br label %53

53:                                               ; preds = %46, %14
  %54 = load ptr, ptr %10, align 8
  %55 = icmp ne ptr %54, null
  br i1 %55, label %56, label %68

56:                                               ; preds = %53
  %57 = load ptr, ptr %7, align 8
  %58 = getelementptr inbounds nuw %struct._wmem_tree_node_t, ptr %57, i32 0, i32 6
  %59 = load i8, ptr %58, align 4, !range !6, !noundef !7
  %60 = trunc i8 %59 to i1
  br i1 %60, label %68, label %61

61:                                               ; preds = %56
  %62 = load i32, ptr %8, align 4
  call void @wmem_print_indent(i32 noundef %62)
  %63 = load ptr, ptr %10, align 8
  %64 = load ptr, ptr %7, align 8
  %65 = getelementptr inbounds nuw %struct._wmem_tree_node_t, ptr %64, i32 0, i32 4
  %66 = load ptr, ptr %65, align 8
  call void %63(ptr noundef %66)
  %67 = call i32 (i32, ptr, ...) @__printf_chk(i32 noundef 2, ptr noundef @.str.8)
  br label %68

68:                                               ; preds = %61, %56, %53
  %69 = load ptr, ptr %7, align 8
  %70 = getelementptr inbounds nuw %struct._wmem_tree_node_t, ptr %69, i32 0, i32 1
  %71 = load ptr, ptr %70, align 8
  %72 = icmp ne ptr %71, null
  br i1 %72, label %73, label %81

73:                                               ; preds = %68
  %74 = load ptr, ptr %7, align 8
  %75 = getelementptr inbounds nuw %struct._wmem_tree_node_t, ptr %74, i32 0, i32 1
  %76 = load ptr, ptr %75, align 8
  %77 = load i32, ptr %8, align 4
  %78 = add i32 %77, 1
  %79 = load ptr, ptr %9, align 8
  %80 = load ptr, ptr %10, align 8
  call void @wmem_tree_print_nodes(ptr noundef @.str.9, ptr noundef %76, i32 noundef %78, ptr noundef %79, ptr noundef %80)
  br label %81

81:                                               ; preds = %73, %68
  %82 = load ptr, ptr %7, align 8
  %83 = getelementptr inbounds nuw %struct._wmem_tree_node_t, ptr %82, i32 0, i32 2
  %84 = load ptr, ptr %83, align 8
  %85 = icmp ne ptr %84, null
  br i1 %85, label %86, label %94

86:                                               ; preds = %81
  %87 = load ptr, ptr %7, align 8
  %88 = getelementptr inbounds nuw %struct._wmem_tree_node_t, ptr %87, i32 0, i32 2
  %89 = load ptr, ptr %88, align 8
  %90 = load i32, ptr %8, align 4
  %91 = add i32 %90, 1
  %92 = load ptr, ptr %9, align 8
  %93 = load ptr, ptr %10, align 8
  call void @wmem_tree_print_nodes(ptr noundef @.str.10, ptr noundef %89, i32 noundef %91, ptr noundef %92, ptr noundef %93)
  br label %94

94:                                               ; preds = %86, %81
  %95 = load ptr, ptr %7, align 8
  %96 = getelementptr inbounds nuw %struct._wmem_tree_node_t, ptr %95, i32 0, i32 6
  %97 = load i8, ptr %96, align 4, !range !6, !noundef !7
  %98 = trunc i8 %97 to i1
  br i1 %98, label %99, label %107

99:                                               ; preds = %94
  %100 = load ptr, ptr %7, align 8
  %101 = getelementptr inbounds nuw %struct._wmem_tree_node_t, ptr %100, i32 0, i32 4
  %102 = load ptr, ptr %101, align 8
  %103 = load i32, ptr %8, align 4
  %104 = add i32 %103, 1
  %105 = load ptr, ptr %9, align 8
  %106 = load ptr, ptr %10, align 8
  call void @wmem_print_subtree(ptr noundef %102, i32 noundef %104, ptr noundef %105, ptr noundef %106)
  br label %107

107:                                              ; preds = %13, %99, %94
  ret void
}