; Function Attrs: null_pointer_is_valid sspstrong uwtable
define internal fastcc void @wmem_tree_print_nodes(ptr noundef %0, ptr noundef nonnull %1, i32 noundef %2, ptr noundef %3, ptr noundef %4) unnamed_addr #0 {
  %.not38 = icmp eq ptr %3, null
  %.not39 = icmp eq ptr %4, null
  br label %tailrecurse

tailrecurse:                                      ; preds = %wmem_print_indent.exit.i, %5
  %.tr = phi ptr [ %0, %5 ], [ @.str.1, %wmem_print_indent.exit.i ]
  %.tr53 = phi ptr [ %1, %5 ], [ %59, %wmem_print_indent.exit.i ]
  %.tr54 = phi i32 [ %2, %5 ], [ %52, %wmem_print_indent.exit.i ]
  %.not.i = icmp eq i32 %.tr54, 0
  br i1 %.not.i, label %wmem_print_indent.exit, label %.lr.ph.i

.lr.ph.i:                                         ; preds = %tailrecurse, %.lr.ph.i
  %.03.i = phi i32 [ %7, %.lr.ph.i ], [ 0, %tailrecurse ]
  %6 = tail call i32 (i32, ptr, ...) @__printf_chk(i32 noundef 2, ptr noundef nonnull @.str.2)
  %7 = add nuw i32 %.03.i, 1
  %exitcond.not.i = icmp eq i32 %7, %.tr54
  br i1 %exitcond.not.i, label %wmem_print_indent.exit, label %.lr.ph.i, !llvm.loop !24

wmem_print_indent.exit:                           ; preds = %.lr.ph.i, %tailrecurse
  %8 = load ptr, ptr %.tr53, align 8
  %9 = getelementptr inbounds nuw i8, ptr %.tr53, i64 8
  %10 = load ptr, ptr %9, align 8
  %11 = getelementptr inbounds nuw i8, ptr %.tr53, i64 16
  %12 = load ptr, ptr %11, align 8
  %13 = getelementptr inbounds nuw i8, ptr %.tr53, i64 40
  %14 = load i32, ptr %13, align 8
  %.not = icmp eq i32 %14, 0
  %15 = select i1 %.not, ptr @.str.5, ptr @.str.4
  %16 = getelementptr inbounds nuw i8, ptr %.tr53, i64 24
  %17 = load ptr, ptr %16, align 8
  %18 = getelementptr inbounds nuw i8, ptr %.tr53, i64 44
  %19 = load i8, ptr %18, align 4, !range !6, !noundef !7
  %20 = trunc nuw i8 %19 to i1
  %21 = select i1 %20, ptr @.str.6, ptr @.str.7
  %22 = getelementptr inbounds nuw i8, ptr %.tr53, i64 32
  %23 = load ptr, ptr %22, align 8
  %24 = tail call i32 (i32, ptr, ...) @__printf_chk(i32 noundef 2, ptr noundef nonnull @.str.3, ptr noundef %.tr, ptr noundef nonnull %.tr53, ptr noundef %8, ptr noundef %10, ptr noundef %12, ptr noundef nonnull %15, ptr noundef %17, ptr noundef nonnull %21, ptr noundef %23)
  br i1 %.not38, label %30, label %25

25:                                               ; preds = %wmem_print_indent.exit
  br i1 %.not.i, label %wmem_print_indent.exit46, label %.lr.ph.i43

.lr.ph.i43:                                       ; preds = %25, %.lr.ph.i43
  %.03.i44 = phi i32 [ %27, %.lr.ph.i43 ], [ 0, %25 ]
  %26 = tail call i32 (i32, ptr, ...) @__printf_chk(i32 noundef 2, ptr noundef nonnull @.str.2)
  %27 = add nuw i32 %.03.i44, 1
  %exitcond.not.i45 = icmp eq i32 %27, %.tr54
  br i1 %exitcond.not.i45, label %wmem_print_indent.exit46, label %.lr.ph.i43, !llvm.loop !24

wmem_print_indent.exit46:                         ; preds = %.lr.ph.i43, %25
  %28 = load ptr, ptr %16, align 8
  tail call void %3(ptr noundef %28)
  %29 = tail call i32 (i32, ptr, ...) @__printf_chk(i32 noundef 2, ptr noundef nonnull @.str.8)
  br label %30

30:                                               ; preds = %wmem_print_indent.exit46, %wmem_print_indent.exit
  br i1 %.not39, label %39, label %31

31:                                               ; preds = %30
  %32 = load i8, ptr %18, align 4, !range !6, !noundef !7
  %33 = trunc nuw i8 %32 to i1
  br i1 %33, label %39, label %34

34:                                               ; preds = %31
  br i1 %.not.i, label %wmem_print_indent.exit51, label %.lr.ph.i48

.lr.ph.i48:                                       ; preds = %34, %.lr.ph.i48
  %.03.i49 = phi i32 [ %36, %.lr.ph.i48 ], [ 0, %34 ]
  %35 = tail call i32 (i32, ptr, ...) @__printf_chk(i32 noundef 2, ptr noundef nonnull @.str.2)
  %36 = add nuw i32 %.03.i49, 1
  %exitcond.not.i50 = icmp eq i32 %36, %.tr54
  br i1 %exitcond.not.i50, label %wmem_print_indent.exit51, label %.lr.ph.i48, !llvm.loop !24

wmem_print_indent.exit51:                         ; preds = %.lr.ph.i48, %34
  %37 = load ptr, ptr %22, align 8
  tail call void %4(ptr noundef %37)
  %38 = tail call i32 (i32, ptr, ...) @__printf_chk(i32 noundef 2, ptr noundef nonnull @.str.8)
  br label %39

39:                                               ; preds = %wmem_print_indent.exit51, %31, %30
  %40 = load ptr, ptr %9, align 8
  %.not40 = icmp eq ptr %40, null
  br i1 %.not40, label %43, label %41

41:                                               ; preds = %39
  %42 = add i32 %.tr54, 1
  tail call fastcc void @wmem_tree_print_nodes(ptr noundef nonnull @.str.9, ptr noundef %40, i32 noundef %42, ptr noundef %3, ptr noundef %4)
  br label %43

43:                                               ; preds = %41, %39
  %44 = load ptr, ptr %11, align 8
  %.not41 = icmp eq ptr %44, null
  br i1 %.not41, label %47, label %45

45:                                               ; preds = %43
  %46 = add i32 %.tr54, 1
  tail call fastcc void @wmem_tree_print_nodes(ptr noundef nonnull @.str.10, ptr noundef %44, i32 noundef %46, ptr noundef %3, ptr noundef %4)
  br label %47

47:                                               ; preds = %45, %43
  %48 = load i8, ptr %18, align 4, !range !6, !noundef !7
  %49 = trunc nuw i8 %48 to i1
  br i1 %49, label %50, label %wmem_print_subtree.exit

50:                                               ; preds = %47
  %51 = load ptr, ptr %22, align 8
  %52 = add i32 %.tr54, 1
  %.not.i52 = icmp eq ptr %51, null
  br i1 %.not.i52, label %wmem_print_subtree.exit, label %53

53:                                               ; preds = %50
  %.not.i.i = icmp eq i32 %52, 0
  br i1 %.not.i.i, label %wmem_print_indent.exit.i, label %.lr.ph.i.i

.lr.ph.i.i:                                       ; preds = %53, %.lr.ph.i.i
  %.03.i.i = phi i32 [ %55, %.lr.ph.i.i ], [ 0, %53 ]
  %54 = tail call i32 (i32, ptr, ...) @__printf_chk(i32 noundef 2, ptr noundef nonnull @.str.2)
  %55 = add nuw i32 %.03.i.i, 1
  %exitcond.not.i.i = icmp eq i32 %.03.i.i, %.tr54
  br i1 %exitcond.not.i.i, label %wmem_print_indent.exit.i, label %.lr.ph.i.i, !llvm.loop !24

wmem_print_indent.exit.i:                         ; preds = %.lr.ph.i.i, %53
  %56 = getelementptr inbounds nuw i8, ptr %51, i64 16
  %57 = load ptr, ptr %56, align 8
  %58 = tail call i32 (i32, ptr, ...) @__printf_chk(i32 noundef 2, ptr noundef nonnull @.str, ptr noundef nonnull %51, ptr noundef %57)
  %59 = load ptr, ptr %56, align 8
  %.not9.i = icmp eq ptr %59, null
  br i1 %.not9.i, label %wmem_print_subtree.exit, label %tailrecurse

wmem_print_subtree.exit:                          ; preds = %wmem_print_indent.exit.i, %50, %47
  ret void
}